; Function Attrs: nounwind uwtable
define dso_local zeroext i1 @contain_vars_returning_old_or_new(ptr noundef %0) local_unnamed_addr #0 {
  %2 = icmp eq ptr %0, null
  br i1 %2, label %contain_vars_returning_old_or_new_walker.exit, label %3

3:                                                ; preds = %1
  %4 = load i32, ptr %0, align 4
  switch i32 %4, label %17 [
    i32 6, label %5
    i32 61, label %13
  ]

5:                                                ; preds = %3
  %6 = getelementptr inbounds nuw i8, ptr %0, i64 32
  %7 = load i32, ptr %6, align 8
  %8 = icmp eq i32 %7, 0
  br i1 %8, label %9, label %12

9:                                                ; preds = %5
  %10 = getelementptr inbounds nuw i8, ptr %0, i64 36
  %11 = load i32, ptr %10, align 4
  %.not.i = icmp eq i32 %11, 0
  br i1 %.not.i, label %12, label %contain_vars_returning_old_or_new_walker.exit

12:                                               ; preds = %9, %5
  br label %contain_vars_returning_old_or_new_walker.exit

13:                                               ; preds = %3
  %14 = getelementptr inbounds nuw i8, ptr %0, i64 4
  %15 = load i32, ptr %14, align 4
  %16 = icmp eq i32 %15, 0
  br label %contain_vars_returning_old_or_new_walker.exit

17:                                               ; preds = %3
  %18 = tail call zeroext i1 @expression_tree_walker_impl(ptr noundef nonnull %0, ptr noundef nonnull @contain_vars_returning_old_or_new_walker, ptr noundef null) #6
  br label %contain_vars_returning_old_or_new_walker.exit

contain_vars_returning_old_or_new_walker.exit:    ; preds = %1, %9, %12, %13, %17
  %.0.i = phi i1 [ false, %12 ], [ %18, %17 ], [ false, %1 ], [ true, %9 ], [ %16, %13 ]
  ret i1 %.0.i
}